target datalayout = "e-m:e-p270:32:32-p271:32:32-p272:64:64-i64:64-i128:128-f80:128-n8:16:32:64-S128"
target triple = "x86_64-pc-linux-gnu"

%class.XStack = type { i64, ptr, [15 x ptr] }
%class.XStack.0 = type { i64, ptr, [254 x %class.XMarkStackEntry] }
%class.XMarkStackEntry = type { i64 }

; Function Attrs: mustprogress nounwind uwtable
define linkonce_odr hidden noundef zeroext i1 @_ZNK6XStackIPS_I15XMarkStackEntryLm254EELm15EE7is_fullEv(ptr noundef nonnull align 8 dereferenceable(136) %0) #1 comdat align 2 {
  %2 = alloca ptr, align 8
  store ptr %0, ptr %2, align 8
  %3 = load ptr, ptr %2, align 8
  %4 = getelementptr inbounds %class.XStack, ptr %3, i32 0, i32 0
  %5 = load i64, ptr %4, align 8
  %6 = icmp eq i64 %5, 15
  ret i1 %6
}

; Function Attrs: mustprogress nounwind uwtable
define linkonce_odr hidden void @_ZN15XMarkStackEntryC2Ev(ptr noundef nonnull align 8 dereferenceable(8) %0) unnamed_addr #1 comdat align 2 {
  %2 = alloca ptr, align 8
  store ptr %0, ptr %2, align 8
  ret void
}

; Function Attrs: mustprogress nounwind uwtable
define linkonce_odr hidden noundef zeroext i1 @_ZN6XStackIPS_I15XMarkStackEntryLm254EELm15EE4pushES2_(ptr noundef nonnull align 8 dereferenceable(136) %0, ptr noundef %1) #1 comdat align 2 {
  %3 = alloca i1, align 1
  %4 = alloca ptr, align 8
  %5 = alloca ptr, align 8
  store ptr %0, ptr %4, align 8
  store ptr %1, ptr %5, align 8
  %6 = load ptr, ptr %4, align 8
  %7 = call noundef zeroext i1 @_ZNK6XStackIPS_I15XMarkStackEntryLm254EELm15EE7is_fullEv(ptr noundef nonnull align 8 dereferenceable(136) %6)
  br i1 %7, label %8, label %9

8:                                                ; preds = %2
  store i1 false, ptr %3, align 1
  br label %16

9:                                                ; preds = %2
  %10 = load ptr, ptr %5, align 8
  %11 = getelementptr inbounds %class.XStack, ptr %6, i32 0, i32 2
  %12 = getelementptr inbounds %class.XStack, ptr %6, i32 0, i32 0
  %13 = load i64, ptr %12, align 8
  %14 = add i64 %13, 1
  store i64 %14, ptr %12, align 8
  %15 = getelementptr inbounds [15 x ptr], ptr %11, i64 0, i64 %13
  store ptr %10, ptr %15, align 8
  store i1 true, ptr %3, align 1
  br label %16

16:                                               ; preds = %9, %8
  %17 = load i1, ptr %3, align 1
  ret i1 %17
}

; Function Attrs: mustprogress nounwind uwtable
define linkonce_odr hidden void @_ZN6XStackI15XMarkStackEntryLm254EEC2Ev(ptr noundef nonnull align 8 dereferenceable(2048) %0) unnamed_addr #1 comdat align 2 {
  %2 = alloca ptr, align 8
  store ptr %0, ptr %2, align 8
  %3 = load ptr, ptr %2, align 8
  %4 = getelementptr inbounds %class.XStack.0, ptr %3, i32 0, i32 0
  store i64 0, ptr %4, align 8
  %5 = getelementptr inbounds %class.XStack.0, ptr %3, i32 0, i32 1
  store ptr null, ptr %5, align 8
  %6 = getelementptr inbounds %class.XStack.0, ptr %3, i32 0, i32 2
  %7 = getelementptr inbounds [254 x %class.XMarkStackEntry], ptr %6, i32 0, i32 0
  %8 = getelementptr inbounds %class.XMarkStackEntry, ptr %7, i64 254
  br label %9

9:                                                ; preds = %9, %1
  %10 = phi ptr [ %7, %1 ], [ %11, %9 ]
  call void @_ZN15XMarkStackEntryC2Ev(ptr noundef nonnull align 8 dereferenceable(8) %10)
  %11 = getelementptr inbounds %class.XMarkStackEntry, ptr %10, i64 1
  %12 = icmp eq ptr %11, %8
  br i1 %12, label %13, label %9

13:                                               ; preds = %9
  ret void
}

; Function Attrs: mustprogress nounwind uwtable
define linkonce_odr hidden void @_ZN6XStackIPS_I15XMarkStackEntryLm254EELm15EEC2Ev(ptr noundef nonnull align 8 dereferenceable(136) %0) unnamed_addr #1 comdat align 2 {
  %2 = alloca ptr, align 8
  store ptr %0, ptr %2, align 8
  %3 = load ptr, ptr %2, align 8
  %4 = getelementptr inbounds %class.XStack, ptr %3, i32 0, i32 0
  store i64 0, ptr %4, align 8
  %5 = getelementptr inbounds %class.XStack, ptr %3, i32 0, i32 1
  store ptr null, ptr %5, align 8
  ret void
}

; Function Attrs: mustprogress nounwind uwtable
define hidden noundef ptr @_ZN19XMarkStackAllocator26create_magazine_from_spaceEmm(ptr noundef nonnull align 64 dereferenceable(128) %0, i64 noundef %1, i64 noundef %2) #1 align 2 {
  %4 = alloca ptr, align 8
  %5 = alloca i64, align 8
  %6 = alloca i64, align 8
  %7 = alloca ptr, align 8
  %8 = alloca i64, align 8
  %9 = alloca ptr, align 8
  %10 = alloca i8, align 1
  store ptr %0, ptr %4, align 8
  store i64 %1, ptr %5, align 8
  store i64 %2, ptr %6, align 8
  %11 = load i64, ptr %5, align 8
  %12 = inttoptr i64 %11 to ptr
  call void @_ZN6XStackIPS_I15XMarkStackEntryLm254EELm15EEC2Ev(ptr noundef nonnull align 8 dereferenceable(136) %12)
  store ptr %12, ptr %7, align 8
  store i64 2048, ptr %8, align 8
  br label %13

13:                                               ; preds = %26, %3
  %14 = load i64, ptr %8, align 8
  %15 = load i64, ptr %6, align 8
  %16 = icmp ult i64 %14, %15
  br i1 %16, label %17, label %29

17:                                               ; preds = %13
  %18 = load i64, ptr %5, align 8
  %19 = load i64, ptr %8, align 8
  %20 = add i64 %18, %19
  %21 = inttoptr i64 %20 to ptr
  call void @_ZN6XStackI15XMarkStackEntryLm254EEC2Ev(ptr noundef nonnull align 8 dereferenceable(2048) %21)
  store ptr %21, ptr %9, align 8
  %22 = load ptr, ptr %7, align 8
  %23 = load ptr, ptr %9, align 8
  %24 = call noundef zeroext i1 @_ZN6XStackIPS_I15XMarkStackEntryLm254EELm15EE4pushES2_(ptr noundef nonnull align 8 dereferenceable(136) %22, ptr noundef %23)
  %25 = zext i1 %24 to i8
  store i8 %25, ptr %10, align 1
  br label %26

26:                                               ; preds = %17
  %27 = load i64, ptr %8, align 8
  %28 = add i64 %27, 2048
  store i64 %28, ptr %8, align 8
  br label %13, !llvm.loop !8

29:                                               ; preds = %13
  %30 = load ptr, ptr %7, align 8
  ret ptr %30
}